target datalayout = "e-m:e-p270:32:32-p271:32:32-p272:64:64-i64:64-i128:128-f80:128-n8:16:32:64-S128"
target triple = "x86_64-pc-linux-gnu"

%struct.CVodeMemRec = type { double, ptr, ptr, i32, i32, i32, double, double, ptr, i32, ptr, ptr, i32, ptr, i32, i32, double, double, ptr, i32, i32, i32, ptr, ptr, ptr, i32, i32, ptr, ptr, ptr, i32, double, i32, i32, double, ptr, ptr, i32, ptr, ptr, i32, i32, i32, double, ptr, ptr, [13 x ptr], ptr, ptr, ptr, ptr, ptr, [13 x ptr], ptr, ptr, ptr, ptr, [13 x ptr], ptr, ptr, ptr, ptr, ptr, i32, [13 x ptr], ptr, ptr, ptr, ptr, ptr, i32, double, i32, i32, i32, i32, i32, double, double, double, double, double, double, double, double, [14 x double], [6 x double], [13 x double], double, double, double, double, double, double, double, double, double, double, double, i32, ptr, i32, i64, i32, i32, i32, i32, i32, double, double, double, i64, i64, i64, i64, i64, i64, i64, i64, i64, ptr, i64, i64, ptr, i64, i64, i64, i64, i64, i64, i32, i64, i64, i64, i64, i64, i64, double, double, double, ptr, ptr, ptr, ptr, ptr, i32, i32, i64, double, double, double, i32, double, i32, i32, i32, i32, i32, i32, i32, i32, i32, i32, i32, i32, i32, i32, i32, i32, ptr, ptr, ptr, i32, [6 x [4 x double]], i32, i64, ptr, i32, ptr, ptr, double, double, double, ptr, ptr, ptr, double, double, i32, i32, i64, ptr, i32, i32, ptr, i32 }
%struct.CVSpilsMemRec = type { i32, i32, i32, double, double, double, double, i32, i64, i64, i64, i64, i64, i64, i64, ptr, ptr, ptr, ptr, ptr, ptr, ptr, ptr, ptr, i32, ptr, ptr, i64 }

@.str = private unnamed_addr constant [8 x i8] c"CVSPGMR\00", align 1
@.str.9 = private unnamed_addr constant [12 x i8] c"CVSpgmrInit\00", align 1
@.str.10 = private unnamed_addr constant [52 x i8] c"pretype != PREC_NONE, but PSOLVE = NULL is illegal.\00", align 1

; Function Attrs: nounwind uwtable
define internal i32 @CVSpgmrInit(ptr noundef %0) #0 {
  %2 = alloca i32, align 4
  %3 = alloca ptr, align 8
  %4 = alloca ptr, align 8
  %5 = alloca i32, align 4
  store ptr %0, ptr %3, align 8, !tbaa !9
  call void @llvm.lifetime.start.p0(i64 8, ptr %4) #5
  %6 = load ptr, ptr %3, align 8, !tbaa !9
  %7 = getelementptr inbounds nuw %struct.CVodeMemRec, ptr %6, i32 0, i32 144
  %8 = load ptr, ptr %7, align 8, !tbaa !55
  store ptr %8, ptr %4, align 8, !tbaa !31
  %9 = load ptr, ptr %4, align 8, !tbaa !31
  %10 = getelementptr inbounds nuw %struct.CVSpilsMemRec, ptr %9, i32 0, i32 8
  store i64 0, ptr %10, align 8, !tbaa !56
  %11 = load ptr, ptr %4, align 8, !tbaa !31
  %12 = getelementptr inbounds nuw %struct.CVSpilsMemRec, ptr %11, i32 0, i32 12
  store i64 0, ptr %12, align 8, !tbaa !57
  %13 = load ptr, ptr %4, align 8, !tbaa !31
  %14 = getelementptr inbounds nuw %struct.CVSpilsMemRec, ptr %13, i32 0, i32 11
  store i64 0, ptr %14, align 8, !tbaa !58
  %15 = load ptr, ptr %4, align 8, !tbaa !31
  %16 = getelementptr inbounds nuw %struct.CVSpilsMemRec, ptr %15, i32 0, i32 10
  store i64 0, ptr %16, align 8, !tbaa !59
  %17 = load ptr, ptr %4, align 8, !tbaa !31
  %18 = getelementptr inbounds nuw %struct.CVSpilsMemRec, ptr %17, i32 0, i32 9
  store i64 0, ptr %18, align 8, !tbaa !60
  %19 = load ptr, ptr %4, align 8, !tbaa !31
  %20 = getelementptr inbounds nuw %struct.CVSpilsMemRec, ptr %19, i32 0, i32 14
  store i64 0, ptr %20, align 8, !tbaa !61
  %21 = load ptr, ptr %4, align 8, !tbaa !31
  %22 = getelementptr inbounds nuw %struct.CVSpilsMemRec, ptr %21, i32 0, i32 13
  store i64 0, ptr %22, align 8, !tbaa !62
  %23 = load ptr, ptr %4, align 8, !tbaa !31
  %24 = getelementptr inbounds nuw %struct.CVSpilsMemRec, ptr %23, i32 0, i32 1
  %25 = load i32, ptr %24, align 4, !tbaa !35
  %26 = icmp ne i32 %25, 0
  br i1 %26, label %27, label %36

27:                                               ; preds = %1
  %28 = load ptr, ptr %4, align 8, !tbaa !31
  %29 = getelementptr inbounds nuw %struct.CVSpilsMemRec, ptr %28, i32 0, i32 21
  %30 = load ptr, ptr %29, align 8, !tbaa !41
  %31 = icmp eq ptr %30, null
  br i1 %31, label %32, label %36

32:                                               ; preds = %27
  %33 = load ptr, ptr %3, align 8, !tbaa !9
  call void (ptr, i32, ptr, ptr, ptr, ...) @cvProcessError(ptr noundef %33, i32 noundef -1, ptr noundef @.str, ptr noundef @.str.9, ptr noundef @.str.10)
  %34 = load ptr, ptr %4, align 8, !tbaa !31
  %35 = getelementptr inbounds nuw %struct.CVSpilsMemRec, ptr %34, i32 0, i32 27
  store i64 -3, ptr %35, align 8, !tbaa !47
  store i32 -1, ptr %2, align 4
  store i32 1, ptr %5, align 4
  br label %70

36:                                               ; preds = %27, %1
  %37 = load ptr, ptr %4, align 8, !tbaa !31
  %38 = getelementptr inbounds nuw %struct.CVSpilsMemRec, ptr %37, i32 0, i32 1
  %39 = load i32, ptr %38, align 4, !tbaa !35
  %40 = icmp ne i32 %39, 0
  br i1 %40, label %41, label %46

41:                                               ; preds = %36
  %42 = load ptr, ptr %4, align 8, !tbaa !31
  %43 = getelementptr inbounds nuw %struct.CVSpilsMemRec, ptr %42, i32 0, i32 20
  %44 = load ptr, ptr %43, align 8, !tbaa !40
  %45 = icmp ne ptr %44, null
  br label %46

46:                                               ; preds = %41, %36
  %47 = phi i1 [ false, %36 ], [ %45, %41 ]
  %48 = zext i1 %47 to i32
  %49 = load ptr, ptr %3, align 8, !tbaa !9
  %50 = getelementptr inbounds nuw %struct.CVodeMemRec, ptr %49, i32 0, i32 158
  store i32 %48, ptr %50, align 4, !tbaa !48
  %51 = load ptr, ptr %4, align 8, !tbaa !31
  %52 = getelementptr inbounds nuw %struct.CVSpilsMemRec, ptr %51, i32 0, i32 24
  %53 = load i32, ptr %52, align 8, !tbaa !37
  %54 = icmp ne i32 %53, 0
  br i1 %54, label %55, label %61

55:                                               ; preds = %46
  %56 = load ptr, ptr %4, align 8, !tbaa !31
  %57 = getelementptr inbounds nuw %struct.CVSpilsMemRec, ptr %56, i32 0, i32 25
  store ptr @CVSpilsDQJtimes, ptr %57, align 8, !tbaa !38
  %58 = load ptr, ptr %3, align 8, !tbaa !9
  %59 = load ptr, ptr %4, align 8, !tbaa !31
  %60 = getelementptr inbounds nuw %struct.CVSpilsMemRec, ptr %59, i32 0, i32 26
  store ptr %58, ptr %60, align 8, !tbaa !39
  br label %67

61:                                               ; preds = %46
  %62 = load ptr, ptr %3, align 8, !tbaa !9
  %63 = getelementptr inbounds nuw %struct.CVodeMemRec, ptr %62, i32 0, i32 2
  %64 = load ptr, ptr %63, align 8, !tbaa !43
  %65 = load ptr, ptr %4, align 8, !tbaa !31
  %66 = getelementptr inbounds nuw %struct.CVSpilsMemRec, ptr %65, i32 0, i32 26
  store ptr %64, ptr %66, align 8, !tbaa !39
  br label %67

67:                                               ; preds = %61, %55
  %68 = load ptr, ptr %4, align 8, !tbaa !31
  %69 = getelementptr inbounds nuw %struct.CVSpilsMemRec, ptr %68, i32 0, i32 27
  store i64 0, ptr %69, align 8, !tbaa !47
  store i32 0, ptr %2, align 4
  store i32 1, ptr %5, align 4
  br label %70

70:                                               ; preds = %67, %32
  call void @llvm.lifetime.end.p0(i64 8, ptr %4) #5
  %71 = load i32, ptr %2, align 4
  ret i32 %71
}