; Function Attrs: nounwind uwtable
define internal range(i32 -1, 1) i32 @CVSpgmrInit(ptr noundef %0) #0 {
  %2 = getelementptr inbounds nuw i8, ptr %0, i64 1696
  %3 = load ptr, ptr %2, align 8, !tbaa !42
  %4 = getelementptr inbounds nuw i8, ptr %3, i64 56
  %5 = getelementptr inbounds nuw i8, ptr %3, i64 4
  tail call void @llvm.memset.p0.i64(ptr noundef nonnull align 8 dereferenceable(56) %4, i8 0, i64 56, i1 false)
  %6 = load i32, ptr %5, align 4, !tbaa !29
  %.not = icmp eq i32 %6, 0
  br i1 %.not, label %.thread, label %7

7:                                                ; preds = %1
  %8 = getelementptr inbounds nuw i8, ptr %3, i64 160
  %9 = load ptr, ptr %8, align 8, !tbaa !43
  %10 = icmp eq ptr %9, null
  br i1 %10, label %11, label %12

11:                                               ; preds = %7
  tail call void (ptr, i32, ptr, ptr, ptr, ...) @cvProcessError(ptr noundef nonnull %0, i32 noundef -1, ptr noundef nonnull @.str, ptr noundef nonnull @.str.9, ptr noundef nonnull @.str.10) #7
  br label %28

12:                                               ; preds = %7
  %13 = getelementptr inbounds nuw i8, ptr %3, i64 152
  %14 = load ptr, ptr %13, align 8, !tbaa !44
  %15 = icmp ne ptr %14, null
  %16 = zext i1 %15 to i32
  br label %.thread

.thread:                                          ; preds = %1, %12
  %17 = phi i32 [ %16, %12 ], [ 0, %1 ]
  %18 = getelementptr inbounds nuw i8, ptr %0, i64 1780
  store i32 %17, ptr %18, align 4, !tbaa !37
  %19 = getelementptr inbounds nuw i8, ptr %3, i64 184
  %20 = load i32, ptr %19, align 8, !tbaa !31
  %.not23 = icmp eq i32 %20, 0
  br i1 %.not23, label %23, label %21

21:                                               ; preds = %.thread
  %22 = getelementptr inbounds nuw i8, ptr %3, i64 192
  store ptr @CVSpilsDQJtimes, ptr %22, align 8, !tbaa !45
  br label %26

23:                                               ; preds = %.thread
  %24 = getelementptr inbounds nuw i8, ptr %0, i64 16
  %25 = load ptr, ptr %24, align 8, !tbaa !32
  br label %26

26:                                               ; preds = %23, %21
  %.sink = phi ptr [ %25, %23 ], [ %0, %21 ]
  %27 = getelementptr inbounds nuw i8, ptr %3, i64 200
  store ptr %.sink, ptr %27, align 8, !tbaa !46
  br label %28

28:                                               ; preds = %26, %11
  %.sink24 = phi i64 [ 0, %26 ], [ -3, %11 ]
  %.0 = phi i32 [ 0, %26 ], [ -1, %11 ]
  %29 = getelementptr inbounds nuw i8, ptr %3, i64 208
  store i64 %.sink24, ptr %29, align 8, !tbaa !36
  ret i32 %.0
}